; ModuleID = '19/1030.c'
source_filename = "19/1030.c"
target datalayout = "e-m:e-p270:32:32-p271:32:32-p272:64:64-i64:64-f80:128-n8:16:32:64-S128"
target triple = "x86_64-pc-linux-gnu"

@.str = private unnamed_addr constant [3 x i8] c"%s\00", align 1
@.str.1 = private unnamed_addr constant [2 x i8] c" \00", align 1

; Function Attrs: noinline nounwind uwtable
define dso_local i32 @main() #0 {
  %1 = alloca i32, align 4
  %2 = alloca [100 x i8], align 16
  %3 = alloca [100 x i8], align 16
  %4 = alloca [100 x i8], align 16
  %5 = alloca i32, align 4
  %6 = alloca i8**, align 8
  %7 = alloca i32, align 4
  %8 = alloca i32, align 4
  %9 = alloca i32, align 4
  store i32 0, i32* %1, align 4
  %10 = getelementptr inbounds [100 x i8], [100 x i8]* %2, i64 0, i64 0
  %11 = call i32 (i8*, ...) bitcast (i32 (...)* @gets to i32 (i8*, ...)*)(i8* %10)
  %12 = getelementptr inbounds [100 x i8], [100 x i8]* %3, i64 0, i64 0
  %13 = call i32 (i8*, ...) bitcast (i32 (...)* @gets to i32 (i8*, ...)*)(i8* %12)
  %14 = getelementptr inbounds [100 x i8], [100 x i8]* %4, i64 0, i64 0
  %15 = call i32 (i8*, ...) bitcast (i32 (...)* @gets to i32 (i8*, ...)*)(i8* %14)
  %16 = getelementptr inbounds [100 x i8], [100 x i8]* %2, i64 0, i64 0
  %17 = call i64 @strlen(i8* %16) #4
  %18 = trunc i64 %17 to i32
  store i32 %18, i32* %5, align 4
  %19 = load i32, i32* %5, align 4
  %20 = sext i32 %19 to i64
  %21 = mul i64 %20, 8
  %22 = call noalias i8* @malloc(i64 %21) #5
  %23 = bitcast i8* %22 to i8**
  store i8** %23, i8*** %6, align 8
  store i32 0, i32* %8, align 4
  store i32 0, i32* %9, align 4
  store i32 0, i32* %7, align 4
  br label %24

24:                                               ; preds = %37, %0
  %25 = load i32, i32* %7, align 4
  %26 = load i32, i32* %5, align 4
  %27 = icmp slt i32 %25, %26
  br i1 %27, label %28, label %40

28:                                               ; preds = %24
  %29 = load i32, i32* %5, align 4
  %30 = sext i32 %29 to i64
  %31 = mul i64 %30, 4
  %32 = call noalias i8* @malloc(i64 %31) #5
  %33 = load i8**, i8*** %6, align 8
  %34 = load i32, i32* %7, align 4
  %35 = sext i32 %34 to i64
  %36 = getelementptr inbounds i8*, i8** %33, i64 %35
  store i8* %32, i8** %36, align 8
  br label %37

37:                                               ; preds = %28
  %38 = load i32, i32* %7, align 4
  %39 = add nsw i32 %38, 1
  store i32 %39, i32* %7, align 4
  br label %24

40:                                               ; preds = %24
  store i32 0, i32* %7, align 4
  br label %41

41:                                               ; preds = %94, %40
  %42 = load i32, i32* %7, align 4
  %43 = load i32, i32* %5, align 4
  %44 = icmp slt i32 %42, %43
  br i1 %44, label %45, label %97

45:                                               ; preds = %41
  %46 = load i32, i32* %7, align 4
  %47 = load i32, i32* %5, align 4
  %48 = sub nsw i32 %47, 1
  %49 = icmp eq i32 %46, %48
  br i1 %49, label %50, label %60

50:                                               ; preds = %45
  %51 = load i8**, i8*** %6, align 8
  %52 = load i32, i32* %8, align 4
  %53 = sext i32 %52 to i64
  %54 = getelementptr inbounds i8*, i8** %51, i64 %53
  %55 = load i8*, i8** %54, align 8
  %56 = load i32, i32* %9, align 4
  %57 = add nsw i32 %56, 1
  %58 = sext i32 %57 to i64
  %59 = getelementptr inbounds i8, i8* %55, i64 %58
  store i8 0, i8* %59, align 1
  br label %60

60:                                               ; preds = %50, %45
  %61 = load i32, i32* %7, align 4
  %62 = sext i32 %61 to i64
  %63 = getelementptr inbounds [100 x i8], [100 x i8]* %2, i64 0, i64 %62
  %64 = load i8, i8* %63, align 1
  %65 = sext i8 %64 to i32
  %66 = icmp ne i32 %65, 32
  br i1 %66, label %67, label %82

67:                                               ; preds = %60
  %68 = load i32, i32* %7, align 4
  %69 = sext i32 %68 to i64
  %70 = getelementptr inbounds [100 x i8], [100 x i8]* %2, i64 0, i64 %69
  %71 = load i8, i8* %70, align 1
  %72 = load i8**, i8*** %6, align 8
  %73 = load i32, i32* %8, align 4
  %74 = sext i32 %73 to i64
  %75 = getelementptr inbounds i8*, i8** %72, i64 %74
  %76 = load i8*, i8** %75, align 8
  %77 = load i32, i32* %9, align 4
  %78 = sext i32 %77 to i64
  %79 = getelementptr inbounds i8, i8* %76, i64 %78
  store i8 %71, i8* %79, align 1
  %80 = load i32, i32* %9, align 4
  %81 = add nsw i32 %80, 1
  store i32 %81, i32* %9, align 4
  br label %93

82:                                               ; preds = %60
  %83 = load i8**, i8*** %6, align 8
  %84 = load i32, i32* %8, align 4
  %85 = sext i32 %84 to i64
  %86 = getelementptr inbounds i8*, i8** %83, i64 %85
  %87 = load i8*, i8** %86, align 8
  %88 = load i32, i32* %9, align 4
  %89 = sext i32 %88 to i64
  %90 = getelementptr inbounds i8, i8* %87, i64 %89
  store i8 0, i8* %90, align 1
  %91 = load i32, i32* %8, align 4
  %92 = add nsw i32 %91, 1
  store i32 %92, i32* %8, align 4
  store i32 0, i32* %9, align 4
  br label %93

93:                                               ; preds = %82, %67
  br label %94

94:                                               ; preds = %93
  %95 = load i32, i32* %7, align 4
  %96 = add nsw i32 %95, 1
  store i32 %96, i32* %7, align 4
  br label %41

97:                                               ; preds = %41
  store i32 0, i32* %7, align 4
  br label %98

98:                                               ; preds = %120, %97
  %99 = load i32, i32* %7, align 4
  %100 = load i32, i32* %8, align 4
  %101 = icmp sle i32 %99, %100
  br i1 %101, label %102, label %123

102:                                              ; preds = %98
  %103 = load i8**, i8*** %6, align 8
  %104 = load i32, i32* %7, align 4
  %105 = sext i32 %104 to i64
  %106 = getelementptr inbounds i8*, i8** %103, i64 %105
  %107 = load i8*, i8** %106, align 8
  %108 = getelementptr inbounds [100 x i8], [100 x i8]* %3, i64 0, i64 0
  %109 = call i32 @strcmp(i8* %107, i8* %108) #4
  %110 = icmp eq i32 %109, 0
  br i1 %110, label %111, label %119

111:                                              ; preds = %102
  %112 = load i8**, i8*** %6, align 8
  %113 = load i32, i32* %7, align 4
  %114 = sext i32 %113 to i64
  %115 = getelementptr inbounds i8*, i8** %112, i64 %114
  %116 = load i8*, i8** %115, align 8
  %117 = getelementptr inbounds [100 x i8], [100 x i8]* %4, i64 0, i64 0
  %118 = call i8* @strcpy(i8* %116, i8* %117) #5
  br label %119

119:                                              ; preds = %111, %102
  br label %120

120:                                              ; preds = %119
  %121 = load i32, i32* %7, align 4
  %122 = add nsw i32 %121, 1
  store i32 %122, i32* %7, align 4
  br label %98

123:                                              ; preds = %98
  store i32 0, i32* %7, align 4
  br label %124

124:                                              ; preds = %137, %123
  %125 = load i32, i32* %7, align 4
  %126 = load i32, i32* %8, align 4
  %127 = sub nsw i32 %126, 1
  %128 = icmp sle i32 %125, %127
  br i1 %128, label %129, label %140

129:                                              ; preds = %124
  %130 = load i8**, i8*** %6, align 8
  %131 = load i32, i32* %7, align 4
  %132 = sext i32 %131 to i64
  %133 = getelementptr inbounds i8*, i8** %130, i64 %132
  %134 = load i8*, i8** %133, align 8
  %135 = call i32 (i8*, ...) @printf(i8* getelementptr inbounds ([3 x i8], [3 x i8]* @.str, i64 0, i64 0), i8* %134)
  %136 = call i32 (i8*, ...) @printf(i8* getelementptr inbounds ([2 x i8], [2 x i8]* @.str.1, i64 0, i64 0))
  br label %137

137:                                              ; preds = %129
  %138 = load i32, i32* %7, align 4
  %139 = add nsw i32 %138, 1
  store i32 %139, i32* %7, align 4
  br label %124

140:                                              ; preds = %124
  %141 = load i8**, i8*** %6, align 8
  %142 = load i32, i32* %8, align 4
  %143 = sext i32 %142 to i64
  %144 = getelementptr inbounds i8*, i8** %141, i64 %143
  %145 = load i8*, i8** %144, align 8
  %146 = call i32 (i8*, ...) @printf(i8* getelementptr inbounds ([3 x i8], [3 x i8]* @.str, i64 0, i64 0), i8* %145)
  store i32 0, i32* %7, align 4
  br label %147

147:                                              ; preds = %157, %140
  %148 = load i32, i32* %7, align 4
  %149 = load i32, i32* %5, align 4
  %150 = icmp slt i32 %148, %149
  br i1 %150, label %151, label %160

151:                                              ; preds = %147
  %152 = load i8**, i8*** %6, align 8
  %153 = load i32, i32* %7, align 4
  %154 = sext i32 %153 to i64
  %155 = getelementptr inbounds i8*, i8** %152, i64 %154
  %156 = load i8*, i8** %155, align 8
  call void @free(i8* %156) #5
  br label %157

157:                                              ; preds = %151
  %158 = load i32, i32* %7, align 4
  %159 = add nsw i32 %158, 1
  store i32 %159, i32* %7, align 4
  br label %147

160:                                              ; preds = %147
  %161 = load i8**, i8*** %6, align 8
  %162 = bitcast i8** %161 to i8*
  call void @free(i8* %162) #5
  ret i32 0
}

declare dso_local i32 @gets(...) #1

; Function Attrs: nounwind readonly
declare dso_local i64 @strlen(i8*) #2

; Function Attrs: nounwind
declare dso_local noalias i8* @malloc(i64) #3

; Function Attrs: nounwind readonly
declare dso_local i32 @strcmp(i8*, i8*) #2

; Function Attrs: nounwind
declare dso_local i8* @strcpy(i8*, i8*) #3

declare dso_local i32 @printf(i8*, ...) #1

; Function Attrs: nounwind
declare dso_local void @free(i8*) #3


!llvm.module.flags = !{!0}
!llvm.ident = !{!1}

!0 = !{i32 1, !"wchar_size", i32 4}
!1 = !{!"clang version 10.0.0-4ubuntu1 "}
